(lp0
(lp1
S'Bulbasauer'
p2
aI1
aS'Grass'
p3
aS'Poison'
p4
aI16
aS'Overgrow'
p5
aS'Grassland'
p6
aS'Green'
p7
aa(lp8
S'Ivysaur'
p9
aI2
ag3
ag4
aI32
ag5
ag6
ag7
aa(lp10
S'Venusaur'
p11
aI3
ag3
ag4
aS'MAX'
p12
ag5
ag6
ag7
aa(lp13
S'Charmander'
p14
aI4
aS'Fire'
p15
aS'N/A'
p16
aI16
aS'Blaze'
p17
aS'Mountain'
p18
aS'Red'
p19
aa(lp20
S'Charmleon'
p21
aI5
ag15
ag16
aI36
ag17
ag18
ag19
aa(lp22
S'Charizard'
p23
aI6
ag15
aS'Flying'
p24
ag12
ag17
ag18
ag19
aa(lp25
S'Squirtle'
p26
aI7
aS'Water'
p27
ag16
aI16
aS'Torrent'
p28
aS"Water's Edge"
p29
aS'Blue'
p30
aa(lp31
S'Wartorle'
p32
aI8
ag27
ag16
aI36
ag28
ag29
ag30
aa(lp33
S'Blastoise'
p34
aI9
ag27
ag16
ag12
ag28
ag29
ag30
aa(lp35
S'Oddish'
p36
aI43
ag3
ag4
aI21
aS'Chlorophyll'
p37
ag6
ag30
aa(lp38
S'Gloom'
p39
aI44
ag3
ag4
aS'Special'
p40
ag37
ag6
ag30
aa(lp41
S'Vileplume'
p42
aI45
ag3
ag4
ag12
ag37
ag6
ag30
aa(lp43
S'Mewtwo'
p44
aI150
aS'Psychc'
p45
ag16
ag16
aS'Pressure'
p46
aS'Rare'
p47
ag19
aa(lp48
S'Mew'
p49
aI151
ag45
ag16
ag16
aS'Synchronize'
p50
ag47
aS'Purple'
p51
aa.